target datalayout = "e-m:e-p270:32:32-p271:32:32-p272:64:64-i64:64-i128:128-f80:128-n8:16:32:64-S128"
target triple = "x86_64-unknown-linux-gnu"

%"class.icu_75::PluralFormat" = type { %"class.icu_75::Format.base", [6 x i8], %"class.icu_75::Locale", %"class.icu_75::MessagePattern", ptr, double, %"class.icu_75::PluralFormat::PluralSelectorAdapter" }
%"class.icu_75::Format.base" = type <{ %"class.icu_75::UObject", [157 x i8], [157 x i8] }>
%"class.icu_75::UObject" = type { ptr }
%"class.icu_75::Locale" = type <{ %"class.icu_75::UObject", [12 x i8], [6 x i8], [4 x i8], [2 x i8], i32, [4 x i8], ptr, [157 x i8], [3 x i8], ptr, i8, [7 x i8] }>
%"class.icu_75::MessagePattern" = type <{ %"class.icu_75::UObject", i32, [4 x i8], %"class.icu_75::UnicodeString", ptr, ptr, i32, [4 x i8], ptr, ptr, i32, i8, i8, i8, i8 }>
%"class.icu_75::UnicodeString" = type { %"class.icu_75::Replaceable", %"union.icu_75::UnicodeString::StackBufferOrFields" }
%"class.icu_75::Replaceable" = type { %"class.icu_75::UObject" }
%"union.icu_75::UnicodeString::StackBufferOrFields" = type { %struct.anon.0, [32 x i8] }
%struct.anon.0 = type { i16, i32, i32, ptr }
%"class.icu_75::PluralFormat::PluralSelectorAdapter" = type { %"class.icu_75::PluralFormat::PluralSelector", ptr }
%"class.icu_75::PluralFormat::PluralSelector" = type { ptr }

; Function Attrs: mustprogress uwtable
define void @_ZN6icu_7512PluralFormat11copyObjectsERKS0_(ptr noundef nonnull align 8 dereferenceable(712) %this, ptr noundef nonnull align 8 dereferenceable(712) %other) #1 align 2 {
entry:
  %this.addr = alloca ptr, align 8
  %other.addr = alloca ptr, align 8
  %status = alloca i32, align 4
  store ptr %this, ptr %this.addr, align 8
  store ptr %other, ptr %other.addr, align 8
  %this1 = load ptr, ptr %this.addr, align 8
  store i32 0, ptr %status, align 4
  %numberFormat = getelementptr inbounds %"class.icu_75::PluralFormat", ptr %this1, i32 0, i32 4
  %0 = load ptr, ptr %numberFormat, align 8
  %cmp = icmp ne ptr %0, null
  br i1 %cmp, label %if.then, label %if.end

if.then:                                          ; preds = %entry
  %numberFormat2 = getelementptr inbounds %"class.icu_75::PluralFormat", ptr %this1, i32 0, i32 4
  %1 = load ptr, ptr %numberFormat2, align 8
  %isnull = icmp eq ptr %1, null
  br i1 %isnull, label %delete.end, label %delete.notnull

delete.notnull:                                   ; preds = %if.then
  %vtable = load ptr, ptr %1, align 8
  %vfn = getelementptr inbounds ptr, ptr %vtable, i64 1
  %2 = load ptr, ptr %vfn, align 8
  call void %2(ptr noundef nonnull align 8 dereferenceable(356) %1) #10
  br label %delete.end

delete.end:                                       ; preds = %delete.notnull, %if.then
  br label %if.end

if.end:                                           ; preds = %delete.end, %entry
  %pluralRulesWrapper = getelementptr inbounds %"class.icu_75::PluralFormat", ptr %this1, i32 0, i32 6
  %pluralRules = getelementptr inbounds %"class.icu_75::PluralFormat::PluralSelectorAdapter", ptr %pluralRulesWrapper, i32 0, i32 1
  %3 = load ptr, ptr %pluralRules, align 8
  %cmp3 = icmp ne ptr %3, null
  br i1 %cmp3, label %if.then4, label %if.end12

if.then4:                                         ; preds = %if.end
  %pluralRulesWrapper5 = getelementptr inbounds %"class.icu_75::PluralFormat", ptr %this1, i32 0, i32 6
  %pluralRules6 = getelementptr inbounds %"class.icu_75::PluralFormat::PluralSelectorAdapter", ptr %pluralRulesWrapper5, i32 0, i32 1
  %4 = load ptr, ptr %pluralRules6, align 8
  %isnull7 = icmp eq ptr %4, null
  br i1 %isnull7, label %delete.end11, label %delete.notnull8

delete.notnull8:                                  ; preds = %if.then4
  %vtable9 = load ptr, ptr %4, align 8
  %vfn10 = getelementptr inbounds ptr, ptr %vtable9, i64 1
  %5 = load ptr, ptr %vfn10, align 8
  call void %5(ptr noundef nonnull align 8 dereferenceable(28) %4) #10
  br label %delete.end11

delete.end11:                                     ; preds = %delete.notnull8, %if.then4
  br label %if.end12

if.end12:                                         ; preds = %delete.end11, %if.end
  %6 = load ptr, ptr %other.addr, align 8
  %numberFormat13 = getelementptr inbounds %"class.icu_75::PluralFormat", ptr %6, i32 0, i32 4
  %7 = load ptr, ptr %numberFormat13, align 8
  %cmp14 = icmp eq ptr %7, null
  br i1 %cmp14, label %if.then15, label %if.else

if.then15:                                        ; preds = %if.end12
  %locale = getelementptr inbounds %"class.icu_75::PluralFormat", ptr %this1, i32 0, i32 2
  %call = call noundef ptr @_ZN6icu_7512NumberFormat14createInstanceERKNS_6LocaleER10UErrorCode(ptr noundef nonnull align 8 dereferenceable(217) %locale, ptr noundef nonnull align 4 dereferenceable(4) %status)
  %numberFormat16 = getelementptr inbounds %"class.icu_75::PluralFormat", ptr %this1, i32 0, i32 4
  store ptr %call, ptr %numberFormat16, align 8
  br label %if.end22

if.else:                                          ; preds = %if.end12
  %8 = load ptr, ptr %other.addr, align 8
  %numberFormat17 = getelementptr inbounds %"class.icu_75::PluralFormat", ptr %8, i32 0, i32 4
  %9 = load ptr, ptr %numberFormat17, align 8
  %vtable18 = load ptr, ptr %9, align 8
  %vfn19 = getelementptr inbounds ptr, ptr %vtable18, i64 4
  %10 = load ptr, ptr %vfn19, align 8
  %call20 = call noundef ptr %10(ptr noundef nonnull align 8 dereferenceable(356) %9)
  %numberFormat21 = getelementptr inbounds %"class.icu_75::PluralFormat", ptr %this1, i32 0, i32 4
  store ptr %call20, ptr %numberFormat21, align 8
  br label %if.end22

if.end22:                                         ; preds = %if.else, %if.then15
  %11 = load ptr, ptr %other.addr, align 8
  %pluralRulesWrapper23 = getelementptr inbounds %"class.icu_75::PluralFormat", ptr %11, i32 0, i32 6
  %pluralRules24 = getelementptr inbounds %"class.icu_75::PluralFormat::PluralSelectorAdapter", ptr %pluralRulesWrapper23, i32 0, i32 1
  %12 = load ptr, ptr %pluralRules24, align 8
  %cmp25 = icmp eq ptr %12, null
  br i1 %cmp25, label %if.then26, label %if.else31

if.then26:                                        ; preds = %if.end22
  %locale27 = getelementptr inbounds %"class.icu_75::PluralFormat", ptr %this1, i32 0, i32 2
  %call28 = call noundef ptr @_ZN6icu_7511PluralRules9forLocaleERKNS_6LocaleER10UErrorCode(ptr noundef nonnull align 8 dereferenceable(217) %locale27, ptr noundef nonnull align 4 dereferenceable(4) %status)
  %pluralRulesWrapper29 = getelementptr inbounds %"class.icu_75::PluralFormat", ptr %this1, i32 0, i32 6
  %pluralRules30 = getelementptr inbounds %"class.icu_75::PluralFormat::PluralSelectorAdapter", ptr %pluralRulesWrapper29, i32 0, i32 1
  store ptr %call28, ptr %pluralRules30, align 8
  br label %if.end37

if.else31:                                        ; preds = %if.end22
  %13 = load ptr, ptr %other.addr, align 8
  %pluralRulesWrapper32 = getelementptr inbounds %"class.icu_75::PluralFormat", ptr %13, i32 0, i32 6
  %pluralRules33 = getelementptr inbounds %"class.icu_75::PluralFormat::PluralSelectorAdapter", ptr %pluralRulesWrapper32, i32 0, i32 1
  %14 = load ptr, ptr %pluralRules33, align 8
  %call34 = call noundef ptr @_ZNK6icu_7511PluralRules5cloneEv(ptr noundef nonnull align 8 dereferenceable(28) %14)
  %pluralRulesWrapper35 = getelementptr inbounds %"class.icu_75::PluralFormat", ptr %this1, i32 0, i32 6
  %pluralRules36 = getelementptr inbounds %"class.icu_75::PluralFormat::PluralSelectorAdapter", ptr %pluralRulesWrapper35, i32 0, i32 1
  store ptr %call34, ptr %pluralRules36, align 8
  br label %if.end37

if.end37:                                         ; preds = %if.else31, %if.then26
  ret void
}