; Function Attrs: mustprogress uwtable
define void @_ZN6icu_7512PluralFormat11copyObjectsERKS0_(ptr noundef nonnull align 8 dereferenceable(712) %this, ptr nocapture noundef nonnull readonly align 8 dereferenceable(712) %other) local_unnamed_addr #1 align 2 {
entry:
  %status = alloca i32, align 4
  store i32 0, ptr %status, align 4
  %numberFormat = getelementptr inbounds i8, ptr %this, i64 680
  %0 = load ptr, ptr %numberFormat, align 8
  %cmp.not = icmp eq ptr %0, null
  br i1 %cmp.not, label %if.end, label %delete.notnull

delete.notnull:                                   ; preds = %entry
  %vtable = load ptr, ptr %0, align 8
  %vfn = getelementptr inbounds i8, ptr %vtable, i64 8
  %1 = load ptr, ptr %vfn, align 8
  tail call void %1(ptr noundef nonnull align 8 dereferenceable(356) %0) #15
  br label %if.end

if.end:                                           ; preds = %delete.notnull, %entry
  %pluralRules = getelementptr inbounds i8, ptr %this, i64 704
  %2 = load ptr, ptr %pluralRules, align 8
  %cmp3.not = icmp eq ptr %2, null
  br i1 %cmp3.not, label %if.end12, label %delete.notnull8

delete.notnull8:                                  ; preds = %if.end
  %vtable9 = load ptr, ptr %2, align 8
  %vfn10 = getelementptr inbounds i8, ptr %vtable9, i64 8
  %3 = load ptr, ptr %vfn10, align 8
  tail call void %3(ptr noundef nonnull align 8 dereferenceable(28) %2) #15
  br label %if.end12

if.end12:                                         ; preds = %delete.notnull8, %if.end
  %numberFormat13 = getelementptr inbounds i8, ptr %other, i64 680
  %4 = load ptr, ptr %numberFormat13, align 8
  %cmp14 = icmp eq ptr %4, null
  br i1 %cmp14, label %if.then15, label %if.else

if.then15:                                        ; preds = %if.end12
  %locale = getelementptr inbounds i8, ptr %this, i64 328
  %call = call noundef ptr @_ZN6icu_7512NumberFormat14createInstanceERKNS_6LocaleER10UErrorCode(ptr noundef nonnull align 8 dereferenceable(217) %locale, ptr noundef nonnull align 4 dereferenceable(4) %status)
  br label %if.end22

if.else:                                          ; preds = %if.end12
  %vtable18 = load ptr, ptr %4, align 8
  %vfn19 = getelementptr inbounds i8, ptr %vtable18, i64 32
  %5 = load ptr, ptr %vfn19, align 8
  %call20 = tail call noundef ptr %5(ptr noundef nonnull align 8 dereferenceable(356) %4)
  br label %if.end22

if.end22:                                         ; preds = %if.else, %if.then15
  %storemerge = phi ptr [ %call20, %if.else ], [ %call, %if.then15 ]
  store ptr %storemerge, ptr %numberFormat, align 8
  %pluralRules24 = getelementptr inbounds i8, ptr %other, i64 704
  %6 = load ptr, ptr %pluralRules24, align 8
  %cmp25 = icmp eq ptr %6, null
  br i1 %cmp25, label %if.then26, label %if.else31

if.then26:                                        ; preds = %if.end22
  %locale27 = getelementptr inbounds i8, ptr %this, i64 328
  %call28 = call noundef ptr @_ZN6icu_7511PluralRules9forLocaleERKNS_6LocaleER10UErrorCode(ptr noundef nonnull align 8 dereferenceable(217) %locale27, ptr noundef nonnull align 4 dereferenceable(4) %status)
  br label %if.end37

if.else31:                                        ; preds = %if.end22
  %call34 = call noundef ptr @_ZNK6icu_7511PluralRules5cloneEv(ptr noundef nonnull align 8 dereferenceable(28) %6)
  br label %if.end37

if.end37:                                         ; preds = %if.else31, %if.then26
  %storemerge7 = phi ptr [ %call34, %if.else31 ], [ %call28, %if.then26 ]
  store ptr %storemerge7, ptr %pluralRules, align 8
  ret void
}